target datalayout = "e-m:e-p270:32:32-p271:32:32-p272:64:64-i64:64-i128:128-f80:128-n8:16:32:64-S128"
target triple = "x86_64-pc-linux-gnu"

%struct.VectorscopeContext = type { ptr, i32, i32, float, [4 x i16], [2 x float], [4 x i32], [4 x i32], i32, i32, i32, i32, i32, i32, i32, i32, i32, i32, i32, float, float, float, float, [2 x i32], i32, i32, i32, i32, i32, ptr, ptr, ptr, ptr }
%struct.AVChannelLayout = type { i32, i32, %union.anon.1, ptr }
%union.anon.1 = type { i64 }
%struct.AVRational = type { i32, i32 }
%struct.AVFrame = type { [8 x ptr], [8 x i32], ptr, i32, i32, i32, i32, i32, %struct.AVRational, i64, i64, %struct.AVRational, i32, ptr, i32, i32, [8 x ptr], ptr, i32, ptr, i32, i32, i32, i32, i32, i32, i32, i64, ptr, i32, ptr, ptr, i64, i64, i64, i64, ptr, %struct.AVChannelLayout, i64 }

; Function Attrs: nounwind uwtable
define internal void @envelope_instant16(ptr noundef %0, ptr noundef %1) #1 {
  %3 = alloca ptr, align 8
  %4 = alloca ptr, align 8
  %5 = alloca i32, align 4
  %6 = alloca ptr, align 8
  %7 = alloca i32, align 4
  %8 = alloca i32, align 4
  %9 = alloca i32, align 4
  %10 = alloca i32, align 4
  %11 = alloca i32, align 4
  %12 = alloca i32, align 4
  store ptr %0, ptr %3, align 8, !tbaa !22
  store ptr %1, ptr %4, align 8, !tbaa !60
  call void @llvm.lifetime.start.p0(i64 4, ptr %5) #11
  %13 = load ptr, ptr %4, align 8, !tbaa !60
  %14 = getelementptr inbounds nuw %struct.AVFrame, ptr %13, i32 0, i32 1
  %15 = getelementptr inbounds [8 x i32], ptr %14, i64 0, i64 0
  %16 = load i32, ptr %15, align 8, !tbaa !47
  %17 = sdiv i32 %16, 2
  store i32 %17, ptr %5, align 4, !tbaa !47
  call void @llvm.lifetime.start.p0(i64 8, ptr %6) #11
  %18 = load ptr, ptr %3, align 8, !tbaa !22
  %19 = getelementptr inbounds nuw %struct.VectorscopeContext, ptr %18, i32 0, i32 1
  %20 = load i32, ptr %19, align 8, !tbaa !91
  %21 = icmp eq i32 %20, 1
  br i1 %21, label %27, label %22

22:                                               ; preds = %2
  %23 = load ptr, ptr %3, align 8, !tbaa !22
  %24 = getelementptr inbounds nuw %struct.VectorscopeContext, ptr %23, i32 0, i32 13
  %25 = load i32, ptr %24, align 8, !tbaa !85
  %26 = icmp ne i32 %25, 0
  br i1 %26, label %36, label %27

27:                                               ; preds = %22, %2
  %28 = load ptr, ptr %4, align 8, !tbaa !60
  %29 = getelementptr inbounds nuw %struct.AVFrame, ptr %28, i32 0, i32 0
  %30 = load ptr, ptr %3, align 8, !tbaa !22
  %31 = getelementptr inbounds nuw %struct.VectorscopeContext, ptr %30, i32 0, i32 12
  %32 = load i32, ptr %31, align 4, !tbaa !80
  %33 = sext i32 %32 to i64
  %34 = getelementptr inbounds [8 x ptr], ptr %29, i64 0, i64 %33
  %35 = load ptr, ptr %34, align 8, !tbaa !82
  br label %41

36:                                               ; preds = %22
  %37 = load ptr, ptr %4, align 8, !tbaa !60
  %38 = getelementptr inbounds nuw %struct.AVFrame, ptr %37, i32 0, i32 0
  %39 = getelementptr inbounds [8 x ptr], ptr %38, i64 0, i64 0
  %40 = load ptr, ptr %39, align 8, !tbaa !82
  br label %41

41:                                               ; preds = %36, %27
  %42 = phi ptr [ %35, %27 ], [ %40, %36 ]
  store ptr %42, ptr %6, align 8, !tbaa !125
  call void @llvm.lifetime.start.p0(i64 4, ptr %7) #11
  %43 = load ptr, ptr %3, align 8, !tbaa !22
  %44 = getelementptr inbounds nuw %struct.VectorscopeContext, ptr %43, i32 0, i32 14
  %45 = load i32, ptr %44, align 4, !tbaa !64
  %46 = sub nsw i32 %45, 1
  store i32 %46, ptr %7, align 4, !tbaa !47
  call void @llvm.lifetime.start.p0(i64 4, ptr %8) #11
  call void @llvm.lifetime.start.p0(i64 4, ptr %9) #11
  store i32 0, ptr %8, align 4, !tbaa !47
  br label %47

47:                                               ; preds = %147, %41
  %48 = load i32, ptr %8, align 4, !tbaa !47
  %49 = load ptr, ptr %4, align 8, !tbaa !60
  %50 = getelementptr inbounds nuw %struct.AVFrame, ptr %49, i32 0, i32 4
  %51 = load i32, ptr %50, align 4, !tbaa !98
  %52 = icmp slt i32 %48, %51
  br i1 %52, label %53, label %150

53:                                               ; preds = %47
  store i32 0, ptr %9, align 4, !tbaa !47
  br label %54

54:                                               ; preds = %143, %53
  %55 = load i32, ptr %9, align 4, !tbaa !47
  %56 = load ptr, ptr %4, align 8, !tbaa !60
  %57 = getelementptr inbounds nuw %struct.AVFrame, ptr %56, i32 0, i32 3
  %58 = load i32, ptr %57, align 8, !tbaa !99
  %59 = icmp slt i32 %55, %58
  br i1 %59, label %60, label %146

60:                                               ; preds = %54
  call void @llvm.lifetime.start.p0(i64 4, ptr %10) #11
  %61 = load i32, ptr %8, align 4, !tbaa !47
  %62 = load i32, ptr %5, align 4, !tbaa !47
  %63 = mul nsw i32 %61, %62
  %64 = load i32, ptr %9, align 4, !tbaa !47
  %65 = add nsw i32 %63, %64
  store i32 %65, ptr %10, align 4, !tbaa !47
  call void @llvm.lifetime.start.p0(i64 4, ptr %11) #11
  %66 = load i32, ptr %8, align 4, !tbaa !47
  %67 = sub nsw i32 %66, 1
  %68 = load i32, ptr %5, align 4, !tbaa !47
  %69 = mul nsw i32 %67, %68
  %70 = load i32, ptr %9, align 4, !tbaa !47
  %71 = add nsw i32 %69, %70
  store i32 %71, ptr %11, align 4, !tbaa !47
  call void @llvm.lifetime.start.p0(i64 4, ptr %12) #11
  %72 = load i32, ptr %8, align 4, !tbaa !47
  %73 = add nsw i32 %72, 1
  %74 = load i32, ptr %5, align 4, !tbaa !47
  %75 = mul nsw i32 %73, %74
  %76 = load i32, ptr %9, align 4, !tbaa !47
  %77 = add nsw i32 %75, %76
  store i32 %77, ptr %12, align 4, !tbaa !47
  %78 = load ptr, ptr %6, align 8, !tbaa !125
  %79 = load i32, ptr %10, align 4, !tbaa !47
  %80 = sext i32 %79 to i64
  %81 = getelementptr inbounds i16, ptr %78, i64 %80
  %82 = load i16, ptr %81, align 2, !tbaa !65
  %83 = zext i16 %82 to i32
  %84 = icmp ne i32 %83, 0
  br i1 %84, label %85, label %142

85:                                               ; preds = %60
  %86 = load i32, ptr %9, align 4, !tbaa !47
  %87 = icmp ne i32 %86, 0
  br i1 %87, label %88, label %135

88:                                               ; preds = %85
  %89 = load ptr, ptr %6, align 8, !tbaa !125
  %90 = load i32, ptr %10, align 4, !tbaa !47
  %91 = sub nsw i32 %90, 1
  %92 = sext i32 %91 to i64
  %93 = getelementptr inbounds i16, ptr %89, i64 %92
  %94 = load i16, ptr %93, align 2, !tbaa !65
  %95 = icmp ne i16 %94, 0
  br i1 %95, label %96, label %135

96:                                               ; preds = %88
  %97 = load i32, ptr %9, align 4, !tbaa !47
  %98 = load ptr, ptr %4, align 8, !tbaa !60
  %99 = getelementptr inbounds nuw %struct.AVFrame, ptr %98, i32 0, i32 3
  %100 = load i32, ptr %99, align 8, !tbaa !99
  %101 = sub nsw i32 %100, 1
  %102 = icmp eq i32 %97, %101
  br i1 %102, label %135, label %103

103:                                              ; preds = %96
  %104 = load ptr, ptr %6, align 8, !tbaa !125
  %105 = load i32, ptr %10, align 4, !tbaa !47
  %106 = add nsw i32 %105, 1
  %107 = sext i32 %106 to i64
  %108 = getelementptr inbounds i16, ptr %104, i64 %107
  %109 = load i16, ptr %108, align 2, !tbaa !65
  %110 = icmp ne i16 %109, 0
  br i1 %110, label %111, label %135

111:                                              ; preds = %103
  %112 = load i32, ptr %8, align 4, !tbaa !47
  %113 = icmp ne i32 %112, 0
  br i1 %113, label %114, label %135

114:                                              ; preds = %111
  %115 = load ptr, ptr %6, align 8, !tbaa !125
  %116 = load i32, ptr %11, align 4, !tbaa !47
  %117 = sext i32 %116 to i64
  %118 = getelementptr inbounds i16, ptr %115, i64 %117
  %119 = load i16, ptr %118, align 2, !tbaa !65
  %120 = icmp ne i16 %119, 0
  br i1 %120, label %121, label %135

121:                                              ; preds = %114
  %122 = load i32, ptr %8, align 4, !tbaa !47
  %123 = load ptr, ptr %4, align 8, !tbaa !60
  %124 = getelementptr inbounds nuw %struct.AVFrame, ptr %123, i32 0, i32 4
  %125 = load i32, ptr %124, align 4, !tbaa !98
  %126 = sub nsw i32 %125, 1
  %127 = icmp eq i32 %122, %126
  br i1 %127, label %135, label %128

128:                                              ; preds = %121
  %129 = load ptr, ptr %6, align 8, !tbaa !125
  %130 = load i32, ptr %12, align 4, !tbaa !47
  %131 = sext i32 %130 to i64
  %132 = getelementptr inbounds i16, ptr %129, i64 %131
  %133 = load i16, ptr %132, align 2, !tbaa !65
  %134 = icmp ne i16 %133, 0
  br i1 %134, label %142, label %135

135:                                              ; preds = %128, %121, %114, %111, %103, %96, %88, %85
  %136 = load i32, ptr %7, align 4, !tbaa !47
  %137 = trunc i32 %136 to i16
  %138 = load ptr, ptr %6, align 8, !tbaa !125
  %139 = load i32, ptr %10, align 4, !tbaa !47
  %140 = sext i32 %139 to i64
  %141 = getelementptr inbounds i16, ptr %138, i64 %140
  store i16 %137, ptr %141, align 2, !tbaa !65
  br label %142

142:                                              ; preds = %135, %128, %60
  call void @llvm.lifetime.end.p0(i64 4, ptr %12) #11
  call void @llvm.lifetime.end.p0(i64 4, ptr %11) #11
  call void @llvm.lifetime.end.p0(i64 4, ptr %10) #11
  br label %143

143:                                              ; preds = %142
  %144 = load i32, ptr %9, align 4, !tbaa !47
  %145 = add nsw i32 %144, 1
  store i32 %145, ptr %9, align 4, !tbaa !47
  br label %54, !llvm.loop !172

146:                                              ; preds = %54
  br label %147

147:                                              ; preds = %146
  %148 = load i32, ptr %8, align 4, !tbaa !47
  %149 = add nsw i32 %148, 1
  store i32 %149, ptr %8, align 4, !tbaa !47
  br label %47, !llvm.loop !173

150:                                              ; preds = %47
  call void @llvm.lifetime.end.p0(i64 4, ptr %9) #11
  call void @llvm.lifetime.end.p0(i64 4, ptr %8) #11
  call void @llvm.lifetime.end.p0(i64 4, ptr %7) #11
  call void @llvm.lifetime.end.p0(i64 8, ptr %6) #11
  call void @llvm.lifetime.end.p0(i64 4, ptr %5) #11
  ret void
}