; Function Attrs: nofree norecurse nosync nounwind memory(readwrite, inaccessiblemem: none) uwtable
define internal fastcc void @envelope_instant16(ptr noundef readonly captures(none) %0, ptr noundef readonly captures(none) %1) unnamed_addr #5 {
  %3 = getelementptr inbounds nuw i8, ptr %1, i64 64
  %4 = load i32, ptr %3, align 8, !tbaa !44
  %5 = sdiv i32 %4, 2
  %6 = getelementptr inbounds nuw i8, ptr %0, i64 8
  %7 = load i32, ptr %6, align 8, !tbaa !84
  %8 = icmp eq i32 %7, 1
  br i1 %8, label %12, label %9

9:                                                ; preds = %2
  %10 = getelementptr inbounds nuw i8, ptr %0, i64 88
  %11 = load i32, ptr %10, align 8, !tbaa !78
  %.not = icmp eq i32 %11, 0
  br i1 %.not, label %12, label %17

12:                                               ; preds = %9, %2
  %13 = getelementptr inbounds nuw i8, ptr %0, i64 84
  %14 = load i32, ptr %13, align 4, !tbaa !73
  %15 = sext i32 %14 to i64
  %16 = getelementptr inbounds [8 x ptr], ptr %1, i64 0, i64 %15
  br label %17

17:                                               ; preds = %9, %12
  %.in = phi ptr [ %16, %12 ], [ %1, %9 ]
  %18 = load ptr, ptr %.in, align 8, !tbaa !75
  %19 = getelementptr inbounds nuw i8, ptr %1, i64 108
  %20 = load i32, ptr %19, align 4, !tbaa !90
  %21 = icmp sgt i32 %20, 0
  br i1 %21, label %.preheader.lr.ph, label %._crit_edge55

.preheader.lr.ph:                                 ; preds = %17
  %22 = getelementptr inbounds nuw i8, ptr %0, i64 92
  %23 = load i32, ptr %22, align 4, !tbaa !57
  %24 = getelementptr inbounds nuw i8, ptr %1, i64 104
  %25 = load i32, ptr %24, align 8, !tbaa !91
  %26 = icmp sgt i32 %25, 0
  %27 = trunc i32 %23 to i16
  %28 = add i16 %27, -1
  br i1 %26, label %.preheader.us.preheader, label %._crit_edge55

.preheader.us.preheader:                          ; preds = %.preheader.lr.ph
  %29 = add nsw i32 %20, -1
  %30 = add nsw i32 %25, -1
  %31 = zext nneg i32 %30 to i64
  %32 = sext i32 %5 to i64
  %33 = zext nneg i32 %29 to i64
  %wide.trip.count76 = zext nneg i32 %20 to i64
  %wide.trip.count = zext nneg i32 %25 to i64
  %wide.trip.count71 = zext nneg i32 %25 to i64
  br label %.preheader.us

.preheader.us:                                    ; preds = %.preheader.us.preheader, %._crit_edge.us
  %indvars.iv73 = phi i64 [ 0, %.preheader.us.preheader ], [ %indvars.iv.next74, %._crit_edge.us ]
  %indvars.iv.next74 = add nuw nsw i64 %indvars.iv73, 1
  %.not63 = icmp eq i64 %indvars.iv73, 0
  %34 = icmp eq i64 %indvars.iv73, %33
  br i1 %.not63, label %.lr.ph.split.us.us, label %.lr.ph.split.us62.preheader

.lr.ph.split.us62.preheader:                      ; preds = %.preheader.us
  %35 = mul nsw i64 %indvars.iv.next74, %32
  %36 = add nsw i64 %indvars.iv73, -1
  %37 = mul nsw i64 %36, %32
  %38 = mul nsw i64 %indvars.iv73, %32
  %invariant.gep = getelementptr i16, ptr %18, i64 %38
  %invariant.gep79 = getelementptr i16, ptr %18, i64 %37
  %invariant.gep81 = getelementptr i16, ptr %18, i64 %35
  br label %.lr.ph.split.us62

.lr.ph.split.us62:                                ; preds = %.lr.ph.split.us62.preheader, %53
  %indvars.iv = phi i64 [ 0, %.lr.ph.split.us62.preheader ], [ %indvars.iv.next, %53 ]
  %gep = getelementptr i16, ptr %invariant.gep, i64 %indvars.iv
  %39 = load i16, ptr %gep, align 2, !tbaa !58
  %.not43.us57 = icmp eq i16 %39, 0
  br i1 %.not43.us57, label %53, label %40

40:                                               ; preds = %.lr.ph.split.us62
  %.not44.us58 = icmp eq i64 %indvars.iv, 0
  br i1 %.not44.us58, label %52, label %41

41:                                               ; preds = %40
  %42 = getelementptr i8, ptr %gep, i64 -2
  %43 = load i16, ptr %42, align 2, !tbaa !58
  %.not45.us59 = icmp eq i16 %43, 0
  %44 = icmp eq i64 %indvars.iv, %31
  %or.cond49.us60 = select i1 %.not45.us59, i1 true, i1 %44
  br i1 %or.cond49.us60, label %52, label %45

45:                                               ; preds = %41
  %46 = getelementptr i8, ptr %gep, i64 2
  %47 = load i16, ptr %46, align 2, !tbaa !58
  %.not64 = icmp eq i16 %47, 0
  br i1 %.not64, label %52, label %48

48:                                               ; preds = %45
  %gep80 = getelementptr i16, ptr %invariant.gep79, i64 %indvars.iv
  %49 = load i16, ptr %gep80, align 2, !tbaa !58
  %.not46.us = icmp eq i16 %49, 0
  %or.cond51.us = select i1 %.not46.us, i1 true, i1 %34
  br i1 %or.cond51.us, label %52, label %50

50:                                               ; preds = %48
  %gep82 = getelementptr i16, ptr %invariant.gep81, i64 %indvars.iv
  %51 = load i16, ptr %gep82, align 2, !tbaa !58
  %.not47.us = icmp eq i16 %51, 0
  br i1 %.not47.us, label %52, label %53

52:                                               ; preds = %50, %48, %45, %41, %40
  store i16 %28, ptr %gep, align 2, !tbaa !58
  br label %53

53:                                               ; preds = %52, %50, %.lr.ph.split.us62
  %indvars.iv.next = add nuw nsw i64 %indvars.iv, 1
  %exitcond.not = icmp eq i64 %indvars.iv.next, %wide.trip.count
  br i1 %exitcond.not, label %._crit_edge.us, label %.lr.ph.split.us62, !llvm.loop !183

._crit_edge.us:                                   ; preds = %53, %57
  %exitcond77.not = icmp eq i64 %indvars.iv.next74, %wide.trip.count76
  br i1 %exitcond77.not, label %._crit_edge55, label %.preheader.us, !llvm.loop !184

.lr.ph.split.us.us:                               ; preds = %.preheader.us, %57
  %indvars.iv68 = phi i64 [ %indvars.iv.next69, %57 ], [ 0, %.preheader.us ]
  %54 = getelementptr inbounds nuw i16, ptr %18, i64 %indvars.iv68
  %55 = load i16, ptr %54, align 2, !tbaa !58
  %.not43.us.us = icmp eq i16 %55, 0
  br i1 %.not43.us.us, label %57, label %56

56:                                               ; preds = %.lr.ph.split.us.us
  store i16 %28, ptr %54, align 2, !tbaa !58
  br label %57

57:                                               ; preds = %56, %.lr.ph.split.us.us
  %indvars.iv.next69 = add nuw nsw i64 %indvars.iv68, 1
  %exitcond72.not = icmp eq i64 %indvars.iv.next69, %wide.trip.count71
  br i1 %exitcond72.not, label %._crit_edge.us, label %.lr.ph.split.us.us, !llvm.loop !183

._crit_edge55:                                    ; preds = %._crit_edge.us, %.preheader.lr.ph, %17
  ret void
}